; Function Attrs: nounwind uwtable
define noundef ptr @Cba_ManReadBlif(ptr noundef %0) local_unnamed_addr #0 {
  %2 = tail call ptr @Prs_ManReadBlif(ptr noundef %0)
  %.not = icmp eq ptr %2, null
  br i1 %.not, label %8, label %3

3:                                                ; preds = %1
  %4 = getelementptr i8, ptr %2, i64 4
  %.val = load i32, ptr %4, align 4, !tbaa !36
  %.not9 = icmp eq i32 %.val, 0
  br i1 %.not9, label %7, label %5

5:                                                ; preds = %3
  %6 = tail call ptr @Prs_ManBuildCbaBlif(ptr noundef %0, ptr noundef nonnull %2)
  br label %7

7:                                                ; preds = %5, %3
  %.0.ph = phi ptr [ null, %3 ], [ %6, %5 ]
  tail call fastcc void @Prs_ManVecFree(ptr noundef %2)
  br label %8

8:                                                ; preds = %1, %7
  %.012 = phi ptr [ %.0.ph, %7 ], [ null, %1 ]
  ret ptr %.012
}